ARM GAS  C:\Users\HOGEHO~1\AppData\Local\Temp\ccYpRfMB.s 			page 1


   1              		.cpu cortex-m0
   2              		.eabi_attribute 20, 1
   3              		.eabi_attribute 21, 1
   4              		.eabi_attribute 23, 3
   5              		.eabi_attribute 24, 1
   6              		.eabi_attribute 25, 1
   7              		.eabi_attribute 26, 1
   8              		.eabi_attribute 30, 1
   9              		.eabi_attribute 34, 0
  10              		.eabi_attribute 18, 4
  11              		.file	"input.cpp"
  12              		.text
  13              	.Ltext0:
  14              		.cfi_sections	.debug_frame
  15              		.section	.text._ZN16ChatteringFilterC2Emmbb,"ax",%progbits
  16              		.align	1
  17              		.global	_ZN16ChatteringFilterC2Emmbb
  18              		.syntax unified
  19              		.code	16
  20              		.thumb_func
  21              		.fpu softvfp
  23              	_ZN16ChatteringFilterC2Emmbb:
  24              	.LFB36:
  25              		.file 1 "Src/input.cpp"
   1:Src/input.cpp **** 
   2:Src/input.cpp **** #include "input.hpp"
   3:Src/input.cpp **** #include "main.h"
   4:Src/input.cpp **** #include "gpio.h"
   5:Src/input.cpp **** 
   6:Src/input.cpp **** ChatteringFilter::ChatteringFilter( uint32_t on_cnt, uint32_t off_cnt, bool on_level, bool initial_
  26              		.loc 1 6 0
  27              		.cfi_startproc
  28              		@ args = 4, pretend = 0, frame = 0
  29              		@ frame_needed = 0, uses_anonymous_args = 0
  30              	.LVL0:
  31 0000 10B5     		push	{r4, lr}
  32              	.LCFI0:
  33              		.cfi_def_cfa_offset 8
  34              		.cfi_offset 4, -8
  35              		.cfi_offset 14, -4
  36 0002 02AC     		add	r4, sp, #8
  37              	.LVL1:
  38 0004 2478     		ldrb	r4, [r4]
  39              	.LVL2:
  40              	.LBB2:
   7:Src/input.cpp **** : 
   8:Src/input.cpp ****     mk_OnJdgCnt( on_cnt ),
   9:Src/input.cpp ****     mk_OffJdgCnt( off_cnt ),
  10:Src/input.cpp ****     m_Cnt( 0 ),
  11:Src/input.cpp ****     mk_OnLevel( on_level ),
  12:Src/input.cpp ****     m_InputSignal( initial_level ),
  13:Src/input.cpp ****     m_Sts( initial_level ),
  14:Src/input.cpp ****     m_RisingEdg( false ),
  15:Src/input.cpp ****     m_FallingEdg( false )
  41              		.loc 1 15 0
  42 0006 0160     		str	r1, [r0]
  43 0008 4260     		str	r2, [r0, #4]
ARM GAS  C:\Users\HOGEHO~1\AppData\Local\Temp\ccYpRfMB.s 			page 2


  44 000a 0022     		movs	r2, #0
  45              	.LVL3:
  46 000c 8260     		str	r2, [r0, #8]
  47 000e 0373     		strb	r3, [r0, #12]
  48 0010 4473     		strb	r4, [r0, #13]
  49 0012 8473     		strb	r4, [r0, #14]
  50 0014 C273     		strb	r2, [r0, #15]
  51 0016 0274     		strb	r2, [r0, #16]
  52              	.LBE2:
  16:Src/input.cpp **** {}
  53              		.loc 1 16 0
  54              		@ sp needed
  55 0018 10BD     		pop	{r4, pc}
  56              		.cfi_endproc
  57              	.LFE36:
  59              		.global	_ZN16ChatteringFilterC1Emmbb
  60              		.thumb_set _ZN16ChatteringFilterC1Emmbb,_ZN16ChatteringFilterC2Emmbb
  61              		.section	.text._ZN16ChatteringFilterD2Ev,"ax",%progbits
  62              		.align	1
  63              		.global	_ZN16ChatteringFilterD2Ev
  64              		.syntax unified
  65              		.code	16
  66              		.thumb_func
  67              		.fpu softvfp
  69              	_ZN16ChatteringFilterD2Ev:
  70              	.LFB39:
  17:Src/input.cpp **** 
  18:Src/input.cpp **** ChatteringFilter::~ChatteringFilter() 
  71              		.loc 1 18 0
  72              		.cfi_startproc
  73              		@ args = 0, pretend = 0, frame = 0
  74              		@ frame_needed = 0, uses_anonymous_args = 0
  75              		@ link register save eliminated.
  76              	.LVL4:
  19:Src/input.cpp **** {}
  77              		.loc 1 19 0
  78              		@ sp needed
  79 0000 7047     		bx	lr
  80              		.cfi_endproc
  81              	.LFE39:
  83              		.global	_ZN16ChatteringFilterD1Ev
  84              		.thumb_set _ZN16ChatteringFilterD1Ev,_ZN16ChatteringFilterD2Ev
  85              		.section	.text._ZN16ChatteringFilter6updateEb,"ax",%progbits
  86              		.align	1
  87              		.global	_ZN16ChatteringFilter6updateEb
  88              		.syntax unified
  89              		.code	16
  90              		.thumb_func
  91              		.fpu softvfp
  93              	_ZN16ChatteringFilter6updateEb:
  94              	.LFB41:
  20:Src/input.cpp **** 
  21:Src/input.cpp **** void ChatteringFilter::update( bool input_signal )
  22:Src/input.cpp **** {
  95              		.loc 1 22 0
  96              		.cfi_startproc
  97              		@ args = 0, pretend = 0, frame = 0
ARM GAS  C:\Users\HOGEHO~1\AppData\Local\Temp\ccYpRfMB.s 			page 3


  98              		@ frame_needed = 0, uses_anonymous_args = 0
  99              		@ link register save eliminated.
 100              	.LVL5:
  23:Src/input.cpp ****     // 前回立ち上がり・立ち下がりエッジがあった場合にのみONになるよう
  24:Src/input.cpp ****     // 毎回OFFで初期化
  25:Src/input.cpp ****     m_RisingEdg = false;
 101              		.loc 1 25 0
 102 0000 0023     		movs	r3, #0
 103 0002 C373     		strb	r3, [r0, #15]
  26:Src/input.cpp ****     m_FallingEdg = false;
 104              		.loc 1 26 0
 105 0004 0374     		strb	r3, [r0, #16]
  27:Src/input.cpp **** 
  28:Src/input.cpp ****     if( input_signal == mk_OnLevel ){
 106              		.loc 1 28 0
 107 0006 037B     		ldrb	r3, [r0, #12]
 108 0008 8B42     		cmp	r3, r1
 109 000a 12D0     		beq	.L8
  29:Src/input.cpp ****         if( m_InputSignal == false ){
  30:Src/input.cpp ****             m_Cnt = 0;
  31:Src/input.cpp ****         }
  32:Src/input.cpp **** 
  33:Src/input.cpp ****         if( m_Cnt < mk_OnJdgCnt ){
  34:Src/input.cpp ****             ++m_Cnt;
  35:Src/input.cpp ****             if( m_Cnt >= mk_OnJdgCnt ){
  36:Src/input.cpp ****                 m_Sts = true;
  37:Src/input.cpp ****                 m_RisingEdg = true;
  38:Src/input.cpp ****             }
  39:Src/input.cpp ****         }
  40:Src/input.cpp ****     }
  41:Src/input.cpp ****     else {
  42:Src/input.cpp ****         if( m_InputSignal == true ){
 110              		.loc 1 42 0
 111 000c 437B     		ldrb	r3, [r0, #13]
 112 000e 002B     		cmp	r3, #0
 113 0010 01D0     		beq	.L7
  43:Src/input.cpp ****             m_Cnt = 0;
 114              		.loc 1 43 0
 115 0012 0023     		movs	r3, #0
 116 0014 8360     		str	r3, [r0, #8]
 117              	.L7:
  44:Src/input.cpp ****         }
  45:Src/input.cpp **** 
  46:Src/input.cpp ****         if( m_Cnt < mk_OffJdgCnt ){
 118              		.loc 1 46 0
 119 0016 8368     		ldr	r3, [r0, #8]
 120 0018 4268     		ldr	r2, [r0, #4]
 121 001a 9342     		cmp	r3, r2
 122 001c 07D2     		bcs	.L6
  47:Src/input.cpp ****             ++m_Cnt;
 123              		.loc 1 47 0
 124 001e 0133     		adds	r3, r3, #1
 125 0020 8360     		str	r3, [r0, #8]
  48:Src/input.cpp ****             if( m_Cnt >= mk_OffJdgCnt ){
 126              		.loc 1 48 0
 127 0022 9A42     		cmp	r2, r3
 128 0024 03D8     		bhi	.L6
ARM GAS  C:\Users\HOGEHO~1\AppData\Local\Temp\ccYpRfMB.s 			page 4


  49:Src/input.cpp ****                 m_Sts = false;
 129              		.loc 1 49 0
 130 0026 0023     		movs	r3, #0
 131 0028 8373     		strb	r3, [r0, #14]
  50:Src/input.cpp ****                 m_FallingEdg = true;
 132              		.loc 1 50 0
 133 002a 0133     		adds	r3, r3, #1
 134 002c 0374     		strb	r3, [r0, #16]
 135              	.L6:
  51:Src/input.cpp ****             }
  52:Src/input.cpp ****         }
  53:Src/input.cpp ****     }
  54:Src/input.cpp **** 
  55:Src/input.cpp ****     m_InputSignal = input_signal;
 136              		.loc 1 55 0
 137 002e 4173     		strb	r1, [r0, #13]
  56:Src/input.cpp **** }
 138              		.loc 1 56 0
 139              		@ sp needed
 140 0030 7047     		bx	lr
 141              	.L8:
  29:Src/input.cpp ****             m_Cnt = 0;
 142              		.loc 1 29 0
 143 0032 437B     		ldrb	r3, [r0, #13]
 144 0034 002B     		cmp	r3, #0
 145 0036 00D1     		bne	.L5
  30:Src/input.cpp ****         }
 146              		.loc 1 30 0
 147 0038 8360     		str	r3, [r0, #8]
 148              	.L5:
  33:Src/input.cpp ****             ++m_Cnt;
 149              		.loc 1 33 0
 150 003a 8368     		ldr	r3, [r0, #8]
 151 003c 0268     		ldr	r2, [r0]
 152 003e 9342     		cmp	r3, r2
 153 0040 F5D2     		bcs	.L6
  34:Src/input.cpp ****             if( m_Cnt >= mk_OnJdgCnt ){
 154              		.loc 1 34 0
 155 0042 0133     		adds	r3, r3, #1
 156 0044 8360     		str	r3, [r0, #8]
  35:Src/input.cpp ****                 m_Sts = true;
 157              		.loc 1 35 0
 158 0046 9A42     		cmp	r2, r3
 159 0048 F1D8     		bhi	.L6
  36:Src/input.cpp ****                 m_RisingEdg = true;
 160              		.loc 1 36 0
 161 004a 0123     		movs	r3, #1
 162 004c 8373     		strb	r3, [r0, #14]
  37:Src/input.cpp ****             }
 163              		.loc 1 37 0
 164 004e C373     		strb	r3, [r0, #15]
 165 0050 EDE7     		b	.L6
 166              		.cfi_endproc
 167              	.LFE41:
 169              		.section	.text._ZNK16ChatteringFilter4isOnEv,"ax",%progbits
 170              		.align	1
 171              		.global	_ZNK16ChatteringFilter4isOnEv
ARM GAS  C:\Users\HOGEHO~1\AppData\Local\Temp\ccYpRfMB.s 			page 5


 172              		.syntax unified
 173              		.code	16
 174              		.thumb_func
 175              		.fpu softvfp
 177              	_ZNK16ChatteringFilter4isOnEv:
 178              	.LFB42:
  57:Src/input.cpp **** 
  58:Src/input.cpp **** bool ChatteringFilter::isOn() const
  59:Src/input.cpp **** {
 179              		.loc 1 59 0
 180              		.cfi_startproc
 181              		@ args = 0, pretend = 0, frame = 0
 182              		@ frame_needed = 0, uses_anonymous_args = 0
 183              		@ link register save eliminated.
 184              	.LVL6:
  60:Src/input.cpp ****     return m_Sts == true;
 185              		.loc 1 60 0
 186 0000 807B     		ldrb	r0, [r0, #14]
 187              	.LVL7:
  61:Src/input.cpp **** }
 188              		.loc 1 61 0
 189              		@ sp needed
 190 0002 7047     		bx	lr
 191              		.cfi_endproc
 192              	.LFE42:
 194              		.section	.text._ZNK16ChatteringFilter5isOffEv,"ax",%progbits
 195              		.align	1
 196              		.global	_ZNK16ChatteringFilter5isOffEv
 197              		.syntax unified
 198              		.code	16
 199              		.thumb_func
 200              		.fpu softvfp
 202              	_ZNK16ChatteringFilter5isOffEv:
 203              	.LFB43:
  62:Src/input.cpp **** 
  63:Src/input.cpp **** bool ChatteringFilter::isOff() const
  64:Src/input.cpp **** {
 204              		.loc 1 64 0
 205              		.cfi_startproc
 206              		@ args = 0, pretend = 0, frame = 0
 207              		@ frame_needed = 0, uses_anonymous_args = 0
 208              		@ link register save eliminated.
 209              	.LVL8:
  65:Src/input.cpp ****     return m_Sts == false;
 210              		.loc 1 65 0
 211 0000 807B     		ldrb	r0, [r0, #14]
 212              	.LVL9:
 213 0002 0123     		movs	r3, #1
 214 0004 5840     		eors	r0, r3
  66:Src/input.cpp **** }
 215              		.loc 1 66 0
 216              		@ sp needed
 217 0006 7047     		bx	lr
 218              		.cfi_endproc
 219              	.LFE43:
 221              		.section	.text._ZNK16ChatteringFilter11isRisingEdgEv,"ax",%progbits
 222              		.align	1
ARM GAS  C:\Users\HOGEHO~1\AppData\Local\Temp\ccYpRfMB.s 			page 6


 223              		.global	_ZNK16ChatteringFilter11isRisingEdgEv
 224              		.syntax unified
 225              		.code	16
 226              		.thumb_func
 227              		.fpu softvfp
 229              	_ZNK16ChatteringFilter11isRisingEdgEv:
 230              	.LFB44:
  67:Src/input.cpp **** 
  68:Src/input.cpp **** bool ChatteringFilter::isRisingEdg() const
  69:Src/input.cpp **** {
 231              		.loc 1 69 0
 232              		.cfi_startproc
 233              		@ args = 0, pretend = 0, frame = 0
 234              		@ frame_needed = 0, uses_anonymous_args = 0
 235              		@ link register save eliminated.
 236              	.LVL10:
  70:Src/input.cpp ****     return m_RisingEdg;
 237              		.loc 1 70 0
 238 0000 C07B     		ldrb	r0, [r0, #15]
 239              	.LVL11:
  71:Src/input.cpp **** }
 240              		.loc 1 71 0
 241              		@ sp needed
 242 0002 7047     		bx	lr
 243              		.cfi_endproc
 244              	.LFE44:
 246              		.section	.text._ZNK16ChatteringFilter12isFallingEdgEv,"ax",%progbits
 247              		.align	1
 248              		.global	_ZNK16ChatteringFilter12isFallingEdgEv
 249              		.syntax unified
 250              		.code	16
 251              		.thumb_func
 252              		.fpu softvfp
 254              	_ZNK16ChatteringFilter12isFallingEdgEv:
 255              	.LFB45:
  72:Src/input.cpp **** 
  73:Src/input.cpp **** bool ChatteringFilter::isFallingEdg() const
  74:Src/input.cpp **** {
 256              		.loc 1 74 0
 257              		.cfi_startproc
 258              		@ args = 0, pretend = 0, frame = 0
 259              		@ frame_needed = 0, uses_anonymous_args = 0
 260              		@ link register save eliminated.
 261              	.LVL12:
  75:Src/input.cpp ****     return m_FallingEdg;
 262              		.loc 1 75 0
 263 0000 007C     		ldrb	r0, [r0, #16]
 264              	.LVL13:
  76:Src/input.cpp **** }
 265              		.loc 1 76 0
 266              		@ sp needed
 267 0002 7047     		bx	lr
 268              		.cfi_endproc
 269              	.LFE45:
 271              		.section	.text._ZN2UIC2Ev,"ax",%progbits
 272              		.align	1
 273              		.global	_ZN2UIC2Ev
ARM GAS  C:\Users\HOGEHO~1\AppData\Local\Temp\ccYpRfMB.s 			page 7


 274              		.syntax unified
 275              		.code	16
 276              		.thumb_func
 277              		.fpu softvfp
 279              	_ZN2UIC2Ev:
 280              	.LFB47:
  77:Src/input.cpp **** 
  78:Src/input.cpp **** 
  79:Src/input.cpp **** 
  80:Src/input.cpp **** UI::UI()
 281              		.loc 1 80 0
 282              		.cfi_startproc
 283              		@ args = 0, pretend = 0, frame = 0
 284              		@ frame_needed = 0, uses_anonymous_args = 0
 285              	.LVL14:
 286 0000 30B5     		push	{r4, r5, lr}
 287              	.LCFI1:
 288              		.cfi_def_cfa_offset 12
 289              		.cfi_offset 4, -12
 290              		.cfi_offset 5, -8
 291              		.cfi_offset 14, -4
 292 0002 83B0     		sub	sp, sp, #12
 293              	.LCFI2:
 294              		.cfi_def_cfa_offset 24
 295 0004 0400     		movs	r4, r0
 296              	.LBB3:
  81:Src/input.cpp **** :   m_PlayPause_SW( sk_PlayPause_OnCnt, sk_PlayPause_OffCnt, sk_PlayPause_OnLevel, false ),
  82:Src/input.cpp ****     m_Up_SW( sk_Up_OnCnt, sk_Up_OffCnt, sk_Up_OnLevel, false ),
  83:Src/input.cpp ****     m_Down_SW( sk_Down_OnCnt, sk_Down_OffCnt, sk_Down_OnLevel, false ),
  84:Src/input.cpp ****     m_Right_SW( sk_Right_OnCnt, sk_Right_OffCnt, sk_Right_OnLevel, false ),
  85:Src/input.cpp ****     m_Left_SW( sk_Left_OnCnt, sk_Left_OffCnt, sk_Left_OnLevel, false )
 297              		.loc 1 85 0
 298 0006 0025     		movs	r5, #0
 299 0008 0095     		str	r5, [sp]
 300 000a 0123     		movs	r3, #1
 301 000c 0522     		movs	r2, #5
 302 000e 0521     		movs	r1, #5
 303 0010 FFF7FEFF 		bl	_ZN16ChatteringFilterC1Emmbb
 304              	.LVL15:
 305 0014 2000     		movs	r0, r4
 306 0016 1430     		adds	r0, r0, #20
 307 0018 0095     		str	r5, [sp]
 308 001a 0123     		movs	r3, #1
 309 001c 0522     		movs	r2, #5
 310 001e 0521     		movs	r1, #5
 311 0020 FFF7FEFF 		bl	_ZN16ChatteringFilterC1Emmbb
 312              	.LVL16:
 313 0024 2000     		movs	r0, r4
 314 0026 2830     		adds	r0, r0, #40
 315 0028 0095     		str	r5, [sp]
 316 002a 0123     		movs	r3, #1
 317 002c 0522     		movs	r2, #5
 318 002e 0521     		movs	r1, #5
 319 0030 FFF7FEFF 		bl	_ZN16ChatteringFilterC1Emmbb
 320              	.LVL17:
 321 0034 2000     		movs	r0, r4
 322 0036 3C30     		adds	r0, r0, #60
ARM GAS  C:\Users\HOGEHO~1\AppData\Local\Temp\ccYpRfMB.s 			page 8


 323 0038 0095     		str	r5, [sp]
 324 003a 0123     		movs	r3, #1
 325 003c 0522     		movs	r2, #5
 326 003e 0521     		movs	r1, #5
 327 0040 FFF7FEFF 		bl	_ZN16ChatteringFilterC1Emmbb
 328              	.LVL18:
 329 0044 2000     		movs	r0, r4
 330 0046 5030     		adds	r0, r0, #80
 331 0048 0095     		str	r5, [sp]
 332 004a 0123     		movs	r3, #1
 333 004c 0522     		movs	r2, #5
 334 004e 0521     		movs	r1, #5
 335 0050 FFF7FEFF 		bl	_ZN16ChatteringFilterC1Emmbb
 336              	.LVL19:
 337              	.LBE3:
  86:Src/input.cpp **** {}
 338              		.loc 1 86 0
 339 0054 2000     		movs	r0, r4
 340 0056 03B0     		add	sp, sp, #12
 341              		@ sp needed
 342              	.LVL20:
 343 0058 30BD     		pop	{r4, r5, pc}
 344              		.cfi_endproc
 345              	.LFE47:
 347              		.global	_ZN2UIC1Ev
 348              		.thumb_set _ZN2UIC1Ev,_ZN2UIC2Ev
 349              		.section	.text._ZN2UID2Ev,"ax",%progbits
 350              		.align	1
 351              		.global	_ZN2UID2Ev
 352              		.syntax unified
 353              		.code	16
 354              		.thumb_func
 355              		.fpu softvfp
 357              	_ZN2UID2Ev:
 358              	.LFB50:
  87:Src/input.cpp **** 
  88:Src/input.cpp **** UI::~UI()
 359              		.loc 1 88 0
 360              		.cfi_startproc
 361              		@ args = 0, pretend = 0, frame = 0
 362              		@ frame_needed = 0, uses_anonymous_args = 0
 363              		@ link register save eliminated.
 364              	.LVL21:
  89:Src/input.cpp **** {}
 365              		.loc 1 89 0
 366              		@ sp needed
 367 0000 7047     		bx	lr
 368              		.cfi_endproc
 369              	.LFE50:
 371              		.global	_ZN2UID1Ev
 372              		.thumb_set _ZN2UID1Ev,_ZN2UID2Ev
 373              		.section	.text._ZN2UI6updateEv,"ax",%progbits
 374              		.align	1
 375              		.global	_ZN2UI6updateEv
 376              		.syntax unified
 377              		.code	16
 378              		.thumb_func
ARM GAS  C:\Users\HOGEHO~1\AppData\Local\Temp\ccYpRfMB.s 			page 9


 379              		.fpu softvfp
 381              	_ZN2UI6updateEv:
 382              	.LFB52:
  90:Src/input.cpp **** 
  91:Src/input.cpp **** void UI::update()
  92:Src/input.cpp **** {
 383              		.loc 1 92 0
 384              		.cfi_startproc
 385              		@ args = 0, pretend = 0, frame = 0
 386              		@ frame_needed = 0, uses_anonymous_args = 0
 387              	.LVL22:
 388 0000 70B5     		push	{r4, r5, r6, lr}
 389              	.LCFI3:
 390              		.cfi_def_cfa_offset 16
 391              		.cfi_offset 4, -16
 392              		.cfi_offset 5, -12
 393              		.cfi_offset 6, -8
 394              		.cfi_offset 14, -4
 395 0002 0400     		movs	r4, r0
 396              	.LVL23:
  93:Src/input.cpp ****     bool input_signal = false;              // 入力信号一時保管
  94:Src/input.cpp **** 
  95:Src/input.cpp ****     // 再生・停止スイッチ更新
  96:Src/input.cpp ****     input_signal = HAL_GPIO_ReadPin( SW_PLAY_PAUSE_GPIO_Port, SW_PLAY_PAUSE_Pin );
 397              		.loc 1 96 0
 398 0004 1C4D     		ldr	r5, .L16
 399 0006 4021     		movs	r1, #64
 400 0008 2800     		movs	r0, r5
 401              	.LVL24:
 402 000a FFF7FEFF 		bl	HAL_GPIO_ReadPin
 403              	.LVL25:
 404 000e 411E     		subs	r1, r0, #1
 405 0010 8841     		sbcs	r0, r0, r1
 406 0012 C1B2     		uxtb	r1, r0
 407              	.LVL26:
  97:Src/input.cpp ****     m_PlayPause_SW.update( input_signal );
 408              		.loc 1 97 0
 409 0014 2000     		movs	r0, r4
 410 0016 FFF7FEFF 		bl	_ZN16ChatteringFilter6updateEb
 411              	.LVL27:
  98:Src/input.cpp **** 
  99:Src/input.cpp ****     // 上スイッチ更新
 100:Src/input.cpp ****     input_signal = HAL_GPIO_ReadPin( SW_UP_GPIO_Port, SW_UP_Pin );
 412              		.loc 1 100 0
 413 001a 8021     		movs	r1, #128
 414 001c 9020     		movs	r0, #144
 415 001e 0902     		lsls	r1, r1, #8
 416 0020 C005     		lsls	r0, r0, #23
 417 0022 FFF7FEFF 		bl	HAL_GPIO_ReadPin
 418              	.LVL28:
 419 0026 411E     		subs	r1, r0, #1
 420 0028 8841     		sbcs	r0, r0, r1
 421 002a C1B2     		uxtb	r1, r0
 422              	.LVL29:
 101:Src/input.cpp ****     m_Up_SW.update( input_signal );
 423              		.loc 1 101 0
 424 002c 2000     		movs	r0, r4
ARM GAS  C:\Users\HOGEHO~1\AppData\Local\Temp\ccYpRfMB.s 			page 10


 425 002e 1430     		adds	r0, r0, #20
 426 0030 FFF7FEFF 		bl	_ZN16ChatteringFilter6updateEb
 427              	.LVL30:
 102:Src/input.cpp **** 
 103:Src/input.cpp ****     // 下スイッチ更新
 104:Src/input.cpp ****     input_signal = HAL_GPIO_ReadPin( SW_DOWN_GPIO_Port, SW_DOWN_Pin );
 428              		.loc 1 104 0
 429 0034 0821     		movs	r1, #8
 430 0036 2800     		movs	r0, r5
 431 0038 FFF7FEFF 		bl	HAL_GPIO_ReadPin
 432              	.LVL31:
 433 003c 411E     		subs	r1, r0, #1
 434 003e 8841     		sbcs	r0, r0, r1
 435 0040 C1B2     		uxtb	r1, r0
 436              	.LVL32:
 105:Src/input.cpp ****     m_Down_SW.update( input_signal );
 437              		.loc 1 105 0
 438 0042 2000     		movs	r0, r4
 439 0044 2830     		adds	r0, r0, #40
 440 0046 FFF7FEFF 		bl	_ZN16ChatteringFilter6updateEb
 441              	.LVL33:
 106:Src/input.cpp **** 
 107:Src/input.cpp ****     // 右スイッチ更新
 108:Src/input.cpp ****     input_signal = HAL_GPIO_ReadPin( SW_RIGHT_GPIO_Port, SW_RIGHT_Pin );
 442              		.loc 1 108 0
 443 004a 2021     		movs	r1, #32
 444 004c 2800     		movs	r0, r5
 445 004e FFF7FEFF 		bl	HAL_GPIO_ReadPin
 446              	.LVL34:
 447 0052 411E     		subs	r1, r0, #1
 448 0054 8841     		sbcs	r0, r0, r1
 449 0056 C1B2     		uxtb	r1, r0
 450              	.LVL35:
 109:Src/input.cpp ****     m_Right_SW.update( input_signal );
 451              		.loc 1 109 0
 452 0058 2000     		movs	r0, r4
 453 005a 3C30     		adds	r0, r0, #60
 454 005c FFF7FEFF 		bl	_ZN16ChatteringFilter6updateEb
 455              	.LVL36:
 110:Src/input.cpp **** 
 111:Src/input.cpp ****     // 左スイッチ更新
 112:Src/input.cpp ****     input_signal = HAL_GPIO_ReadPin( SW_LEFT_GPIO_Port, SW_LEFT_Pin );
 456              		.loc 1 112 0
 457 0060 1021     		movs	r1, #16
 458 0062 2800     		movs	r0, r5
 459 0064 FFF7FEFF 		bl	HAL_GPIO_ReadPin
 460              	.LVL37:
 461 0068 411E     		subs	r1, r0, #1
 462 006a 8841     		sbcs	r0, r0, r1
 463 006c C1B2     		uxtb	r1, r0
 464              	.LVL38:
 113:Src/input.cpp ****     m_Left_SW.update( input_signal );
 465              		.loc 1 113 0
 466 006e 2000     		movs	r0, r4
 467 0070 5030     		adds	r0, r0, #80
 468 0072 FFF7FEFF 		bl	_ZN16ChatteringFilter6updateEb
 469              	.LVL39:
ARM GAS  C:\Users\HOGEHO~1\AppData\Local\Temp\ccYpRfMB.s 			page 11


 114:Src/input.cpp **** }
 470              		.loc 1 114 0
 471              		@ sp needed
 472              	.LVL40:
 473 0076 70BD     		pop	{r4, r5, r6, pc}
 474              	.L17:
 475              		.align	2
 476              	.L16:
 477 0078 00040048 		.word	1207960576
 478              		.cfi_endproc
 479              	.LFE52:
 481              		.section	.text._ZNK2UI12playPause_SWEv,"ax",%progbits
 482              		.align	1
 483              		.global	_ZNK2UI12playPause_SWEv
 484              		.syntax unified
 485              		.code	16
 486              		.thumb_func
 487              		.fpu softvfp
 489              	_ZNK2UI12playPause_SWEv:
 490              	.LFB53:
 115:Src/input.cpp **** 
 116:Src/input.cpp **** bool UI::playPause_SW() const
 117:Src/input.cpp **** {
 491              		.loc 1 117 0
 492              		.cfi_startproc
 493              		@ args = 0, pretend = 0, frame = 0
 494              		@ frame_needed = 0, uses_anonymous_args = 0
 495              	.LVL41:
 496 0000 10B5     		push	{r4, lr}
 497              	.LCFI4:
 498              		.cfi_def_cfa_offset 8
 499              		.cfi_offset 4, -8
 500              		.cfi_offset 14, -4
 118:Src/input.cpp ****     return m_PlayPause_SW.isOn();
 501              		.loc 1 118 0
 502 0002 FFF7FEFF 		bl	_ZNK16ChatteringFilter4isOnEv
 503              	.LVL42:
 119:Src/input.cpp **** }
 504              		.loc 1 119 0
 505              		@ sp needed
 506 0006 10BD     		pop	{r4, pc}
 507              		.cfi_endproc
 508              	.LFE53:
 510              		.section	.text._ZNK2UI5up_SWEv,"ax",%progbits
 511              		.align	1
 512              		.global	_ZNK2UI5up_SWEv
 513              		.syntax unified
 514              		.code	16
 515              		.thumb_func
 516              		.fpu softvfp
 518              	_ZNK2UI5up_SWEv:
 519              	.LFB54:
 120:Src/input.cpp **** 
 121:Src/input.cpp **** bool UI::up_SW() const
 122:Src/input.cpp **** {
 520              		.loc 1 122 0
 521              		.cfi_startproc
ARM GAS  C:\Users\HOGEHO~1\AppData\Local\Temp\ccYpRfMB.s 			page 12


 522              		@ args = 0, pretend = 0, frame = 0
 523              		@ frame_needed = 0, uses_anonymous_args = 0
 524              	.LVL43:
 525 0000 10B5     		push	{r4, lr}
 526              	.LCFI5:
 527              		.cfi_def_cfa_offset 8
 528              		.cfi_offset 4, -8
 529              		.cfi_offset 14, -4
 123:Src/input.cpp ****     return m_Up_SW.isOn();
 530              		.loc 1 123 0
 531 0002 1430     		adds	r0, r0, #20
 532              	.LVL44:
 533 0004 FFF7FEFF 		bl	_ZNK16ChatteringFilter4isOnEv
 534              	.LVL45:
 124:Src/input.cpp **** }
 535              		.loc 1 124 0
 536              		@ sp needed
 537 0008 10BD     		pop	{r4, pc}
 538              		.cfi_endproc
 539              	.LFE54:
 541              		.section	.text._ZNK2UI7down_SWEv,"ax",%progbits
 542              		.align	1
 543              		.global	_ZNK2UI7down_SWEv
 544              		.syntax unified
 545              		.code	16
 546              		.thumb_func
 547              		.fpu softvfp
 549              	_ZNK2UI7down_SWEv:
 550              	.LFB55:
 125:Src/input.cpp **** 
 126:Src/input.cpp **** bool UI::down_SW() const
 127:Src/input.cpp **** {
 551              		.loc 1 127 0
 552              		.cfi_startproc
 553              		@ args = 0, pretend = 0, frame = 0
 554              		@ frame_needed = 0, uses_anonymous_args = 0
 555              	.LVL46:
 556 0000 10B5     		push	{r4, lr}
 557              	.LCFI6:
 558              		.cfi_def_cfa_offset 8
 559              		.cfi_offset 4, -8
 560              		.cfi_offset 14, -4
 128:Src/input.cpp ****     return m_Down_SW.isOn();
 561              		.loc 1 128 0
 562 0002 2830     		adds	r0, r0, #40
 563              	.LVL47:
 564 0004 FFF7FEFF 		bl	_ZNK16ChatteringFilter4isOnEv
 565              	.LVL48:
 129:Src/input.cpp **** }
 566              		.loc 1 129 0
 567              		@ sp needed
 568 0008 10BD     		pop	{r4, pc}
 569              		.cfi_endproc
 570              	.LFE55:
 572              		.section	.text._ZNK2UI8right_SWEv,"ax",%progbits
 573              		.align	1
 574              		.global	_ZNK2UI8right_SWEv
ARM GAS  C:\Users\HOGEHO~1\AppData\Local\Temp\ccYpRfMB.s 			page 13


 575              		.syntax unified
 576              		.code	16
 577              		.thumb_func
 578              		.fpu softvfp
 580              	_ZNK2UI8right_SWEv:
 581              	.LFB56:
 130:Src/input.cpp **** 
 131:Src/input.cpp **** bool UI::right_SW() const
 132:Src/input.cpp **** {
 582              		.loc 1 132 0
 583              		.cfi_startproc
 584              		@ args = 0, pretend = 0, frame = 0
 585              		@ frame_needed = 0, uses_anonymous_args = 0
 586              	.LVL49:
 587 0000 10B5     		push	{r4, lr}
 588              	.LCFI7:
 589              		.cfi_def_cfa_offset 8
 590              		.cfi_offset 4, -8
 591              		.cfi_offset 14, -4
 133:Src/input.cpp ****     return m_Right_SW.isOn();
 592              		.loc 1 133 0
 593 0002 3C30     		adds	r0, r0, #60
 594              	.LVL50:
 595 0004 FFF7FEFF 		bl	_ZNK16ChatteringFilter4isOnEv
 596              	.LVL51:
 134:Src/input.cpp **** }
 597              		.loc 1 134 0
 598              		@ sp needed
 599 0008 10BD     		pop	{r4, pc}
 600              		.cfi_endproc
 601              	.LFE56:
 603              		.section	.text._ZNK2UI7left_SWEv,"ax",%progbits
 604              		.align	1
 605              		.global	_ZNK2UI7left_SWEv
 606              		.syntax unified
 607              		.code	16
 608              		.thumb_func
 609              		.fpu softvfp
 611              	_ZNK2UI7left_SWEv:
 612              	.LFB57:
 135:Src/input.cpp **** 
 136:Src/input.cpp **** bool UI::left_SW() const
 137:Src/input.cpp **** {
 613              		.loc 1 137 0
 614              		.cfi_startproc
 615              		@ args = 0, pretend = 0, frame = 0
 616              		@ frame_needed = 0, uses_anonymous_args = 0
 617              	.LVL52:
 618 0000 10B5     		push	{r4, lr}
 619              	.LCFI8:
 620              		.cfi_def_cfa_offset 8
 621              		.cfi_offset 4, -8
 622              		.cfi_offset 14, -4
 138:Src/input.cpp ****     return m_Left_SW.isOn();
 623              		.loc 1 138 0
 624 0002 5030     		adds	r0, r0, #80
 625              	.LVL53:
ARM GAS  C:\Users\HOGEHO~1\AppData\Local\Temp\ccYpRfMB.s 			page 14


 626 0004 FFF7FEFF 		bl	_ZNK16ChatteringFilter4isOnEv
 627              	.LVL54:
 139:Src/input.cpp **** }
 628              		.loc 1 139 0
 629              		@ sp needed
 630 0008 10BD     		pop	{r4, pc}
 631              		.cfi_endproc
 632              	.LFE57:
 634              		.text
 635              	.Letext0:
 636              		.file 2 "c:\\program files (x86)\\gnu tools arm embedded\\7 2018-q2-update\\arm-none-eabi\\include
 637              		.file 3 "c:\\program files (x86)\\gnu tools arm embedded\\7 2018-q2-update\\arm-none-eabi\\include
 638              		.file 4 "Inc/input.hpp"
 639              		.file 5 "Drivers/CMSIS/Device/ST/STM32F0xx/Include/system_stm32f0xx.h"
 640              		.file 6 "Drivers/CMSIS/Device/ST/STM32F0xx/Include/stm32f042x6.h"
 641              		.file 7 "c:\\program files (x86)\\gnu tools arm embedded\\7 2018-q2-update\\arm-none-eabi\\include
 642              		.file 8 "c:\\program files (x86)\\gnu tools arm embedded\\7 2018-q2-update\\arm-none-eabi\\include
 643              		.file 9 "c:\\program files (x86)\\gnu tools arm embedded\\7 2018-q2-update\\lib\\gcc\\arm-none-eab
 644              		.file 10 "c:\\program files (x86)\\gnu tools arm embedded\\7 2018-q2-update\\arm-none-eabi\\includ
 645              		.file 11 "Drivers/STM32F0xx_HAL_Driver/Inc/stm32f0xx_hal_gpio.h"
ARM GAS  C:\Users\HOGEHO~1\AppData\Local\Temp\ccYpRfMB.s 			page 15

