ARM GAS  C:\Users\HOGEHO~1\AppData\Local\Temp\ccx172WP.s 			page 1


   1              		.cpu cortex-m0
   2              		.eabi_attribute 20, 1
   3              		.eabi_attribute 21, 1
   4              		.eabi_attribute 23, 3
   5              		.eabi_attribute 24, 1
   6              		.eabi_attribute 25, 1
   7              		.eabi_attribute 26, 1
   8              		.eabi_attribute 30, 1
   9              		.eabi_attribute 34, 0
  10              		.eabi_attribute 18, 4
  11              		.file	"tim.c"
  12              		.text
  13              	.Ltext0:
  14              		.cfi_sections	.debug_frame
  15              		.section	.text.MX_TIM14_Init,"ax",%progbits
  16              		.align	1
  17              		.global	MX_TIM14_Init
  18              		.syntax unified
  19              		.code	16
  20              		.thumb_func
  21              		.fpu softvfp
  23              	MX_TIM14_Init:
  24              	.LFB35:
  25              		.file 1 "Src/tim.c"
   1:Src/tim.c     **** /**
   2:Src/tim.c     ****   ******************************************************************************
   3:Src/tim.c     ****   * File Name          : TIM.c
   4:Src/tim.c     ****   * Description        : This file provides code for the configuration
   5:Src/tim.c     ****   *                      of the TIM instances.
   6:Src/tim.c     ****   ******************************************************************************
   7:Src/tim.c     ****   ** This notice applies to any and all portions of this file
   8:Src/tim.c     ****   * that are not between comment pairs USER CODE BEGIN and
   9:Src/tim.c     ****   * USER CODE END. Other portions of this file, whether 
  10:Src/tim.c     ****   * inserted by the user or by software development tools
  11:Src/tim.c     ****   * are owned by their respective copyright owners.
  12:Src/tim.c     ****   *
  13:Src/tim.c     ****   * COPYRIGHT(c) 2018 STMicroelectronics
  14:Src/tim.c     ****   *
  15:Src/tim.c     ****   * Redistribution and use in source and binary forms, with or without modification,
  16:Src/tim.c     ****   * are permitted provided that the following conditions are met:
  17:Src/tim.c     ****   *   1. Redistributions of source code must retain the above copyright notice,
  18:Src/tim.c     ****   *      this list of conditions and the following disclaimer.
  19:Src/tim.c     ****   *   2. Redistributions in binary form must reproduce the above copyright notice,
  20:Src/tim.c     ****   *      this list of conditions and the following disclaimer in the documentation
  21:Src/tim.c     ****   *      and/or other materials provided with the distribution.
  22:Src/tim.c     ****   *   3. Neither the name of STMicroelectronics nor the names of its contributors
  23:Src/tim.c     ****   *      may be used to endorse or promote products derived from this software
  24:Src/tim.c     ****   *      without specific prior written permission.
  25:Src/tim.c     ****   *
  26:Src/tim.c     ****   * THIS SOFTWARE IS PROVIDED BY THE COPYRIGHT HOLDERS AND CONTRIBUTORS "AS IS"
  27:Src/tim.c     ****   * AND ANY EXPRESS OR IMPLIED WARRANTIES, INCLUDING, BUT NOT LIMITED TO, THE
  28:Src/tim.c     ****   * IMPLIED WARRANTIES OF MERCHANTABILITY AND FITNESS FOR A PARTICULAR PURPOSE ARE
  29:Src/tim.c     ****   * DISCLAIMED. IN NO EVENT SHALL THE COPYRIGHT HOLDER OR CONTRIBUTORS BE LIABLE
  30:Src/tim.c     ****   * FOR ANY DIRECT, INDIRECT, INCIDENTAL, SPECIAL, EXEMPLARY, OR CONSEQUENTIAL
  31:Src/tim.c     ****   * DAMAGES (INCLUDING, BUT NOT LIMITED TO, PROCUREMENT OF SUBSTITUTE GOODS OR
  32:Src/tim.c     ****   * SERVICES; LOSS OF USE, DATA, OR PROFITS; OR BUSINESS INTERRUPTION) HOWEVER
  33:Src/tim.c     ****   * CAUSED AND ON ANY THEORY OF LIABILITY, WHETHER IN CONTRACT, STRICT LIABILITY,
ARM GAS  C:\Users\HOGEHO~1\AppData\Local\Temp\ccx172WP.s 			page 2


  34:Src/tim.c     ****   * OR TORT (INCLUDING NEGLIGENCE OR OTHERWISE) ARISING IN ANY WAY OUT OF THE USE
  35:Src/tim.c     ****   * OF THIS SOFTWARE, EVEN IF ADVISED OF THE POSSIBILITY OF SUCH DAMAGE.
  36:Src/tim.c     ****   *
  37:Src/tim.c     ****   ******************************************************************************
  38:Src/tim.c     ****   */
  39:Src/tim.c     **** 
  40:Src/tim.c     **** /* Includes ------------------------------------------------------------------*/
  41:Src/tim.c     **** #include "tim.h"
  42:Src/tim.c     **** 
  43:Src/tim.c     **** /* USER CODE BEGIN 0 */
  44:Src/tim.c     **** 
  45:Src/tim.c     **** /* USER CODE END 0 */
  46:Src/tim.c     **** 
  47:Src/tim.c     **** TIM_HandleTypeDef htim14;
  48:Src/tim.c     **** 
  49:Src/tim.c     **** /* TIM14 init function */
  50:Src/tim.c     **** void MX_TIM14_Init(void)
  51:Src/tim.c     **** {
  26              		.loc 1 51 0
  27              		.cfi_startproc
  28              		@ args = 0, pretend = 0, frame = 0
  29              		@ frame_needed = 0, uses_anonymous_args = 0
  30 0000 10B5     		push	{r4, lr}
  31              	.LCFI0:
  32              		.cfi_def_cfa_offset 8
  33              		.cfi_offset 4, -8
  34              		.cfi_offset 14, -4
  52:Src/tim.c     **** 
  53:Src/tim.c     ****   htim14.Instance = TIM14;
  35              		.loc 1 53 0
  36 0002 0B48     		ldr	r0, .L4
  37 0004 0B4B     		ldr	r3, .L4+4
  38 0006 0360     		str	r3, [r0]
  54:Src/tim.c     ****   htim14.Init.Prescaler = 48;
  39              		.loc 1 54 0
  40 0008 3023     		movs	r3, #48
  41 000a 4360     		str	r3, [r0, #4]
  55:Src/tim.c     ****   htim14.Init.CounterMode = TIM_COUNTERMODE_UP;
  42              		.loc 1 55 0
  43 000c 0023     		movs	r3, #0
  44 000e 8360     		str	r3, [r0, #8]
  56:Src/tim.c     ****   htim14.Init.Period = 1000;
  45              		.loc 1 56 0
  46 0010 FA22     		movs	r2, #250
  47 0012 9200     		lsls	r2, r2, #2
  48 0014 C260     		str	r2, [r0, #12]
  57:Src/tim.c     ****   htim14.Init.ClockDivision = TIM_CLOCKDIVISION_DIV1;
  49              		.loc 1 57 0
  50 0016 0361     		str	r3, [r0, #16]
  58:Src/tim.c     ****   htim14.Init.AutoReloadPreload = TIM_AUTORELOAD_PRELOAD_ENABLE;
  51              		.loc 1 58 0
  52 0018 8033     		adds	r3, r3, #128
  53 001a 8361     		str	r3, [r0, #24]
  59:Src/tim.c     ****   if (HAL_TIM_Base_Init(&htim14) != HAL_OK)
  54              		.loc 1 59 0
  55 001c FFF7FEFF 		bl	HAL_TIM_Base_Init
  56              	.LVL0:
ARM GAS  C:\Users\HOGEHO~1\AppData\Local\Temp\ccx172WP.s 			page 3


  57 0020 0028     		cmp	r0, #0
  58 0022 00D1     		bne	.L3
  59              	.L1:
  60:Src/tim.c     ****   {
  61:Src/tim.c     ****     _Error_Handler(__FILE__, __LINE__);
  62:Src/tim.c     ****   }
  63:Src/tim.c     **** 
  64:Src/tim.c     **** }
  60              		.loc 1 64 0
  61              		@ sp needed
  62 0024 10BD     		pop	{r4, pc}
  63              	.L3:
  61:Src/tim.c     ****   }
  64              		.loc 1 61 0
  65 0026 3D21     		movs	r1, #61
  66 0028 0348     		ldr	r0, .L4+8
  67 002a FFF7FEFF 		bl	_Error_Handler
  68              	.LVL1:
  69              		.loc 1 64 0
  70 002e F9E7     		b	.L1
  71              	.L5:
  72              		.align	2
  73              	.L4:
  74 0030 00000000 		.word	.LANCHOR0
  75 0034 00200040 		.word	1073750016
  76 0038 00000000 		.word	.LC1
  77              		.cfi_endproc
  78              	.LFE35:
  80              		.section	.text.HAL_TIM_Base_MspInit,"ax",%progbits
  81              		.align	1
  82              		.global	HAL_TIM_Base_MspInit
  83              		.syntax unified
  84              		.code	16
  85              		.thumb_func
  86              		.fpu softvfp
  88              	HAL_TIM_Base_MspInit:
  89              	.LFB36:
  65:Src/tim.c     **** 
  66:Src/tim.c     **** void HAL_TIM_Base_MspInit(TIM_HandleTypeDef* tim_baseHandle)
  67:Src/tim.c     **** {
  90              		.loc 1 67 0
  91              		.cfi_startproc
  92              		@ args = 0, pretend = 0, frame = 8
  93              		@ frame_needed = 0, uses_anonymous_args = 0
  94              	.LVL2:
  95 0000 00B5     		push	{lr}
  96              	.LCFI1:
  97              		.cfi_def_cfa_offset 4
  98              		.cfi_offset 14, -4
  99 0002 83B0     		sub	sp, sp, #12
 100              	.LCFI2:
 101              		.cfi_def_cfa_offset 16
 102              	.LBB2:
  68:Src/tim.c     **** 
  69:Src/tim.c     ****   if(tim_baseHandle->Instance==TIM14)
 103              		.loc 1 69 0
 104 0004 0268     		ldr	r2, [r0]
ARM GAS  C:\Users\HOGEHO~1\AppData\Local\Temp\ccx172WP.s 			page 4


 105 0006 0C4B     		ldr	r3, .L9
 106 0008 9A42     		cmp	r2, r3
 107 000a 01D0     		beq	.L8
 108              	.LVL3:
 109              	.L6:
 110              	.LBE2:
  70:Src/tim.c     ****   {
  71:Src/tim.c     ****   /* USER CODE BEGIN TIM14_MspInit 0 */
  72:Src/tim.c     **** 
  73:Src/tim.c     ****   /* USER CODE END TIM14_MspInit 0 */
  74:Src/tim.c     ****     /* TIM14 clock enable */
  75:Src/tim.c     ****     __HAL_RCC_TIM14_CLK_ENABLE();
  76:Src/tim.c     **** 
  77:Src/tim.c     ****     /* TIM14 interrupt Init */
  78:Src/tim.c     ****     HAL_NVIC_SetPriority(TIM14_IRQn, 0, 0);
  79:Src/tim.c     ****     HAL_NVIC_EnableIRQ(TIM14_IRQn);
  80:Src/tim.c     ****   /* USER CODE BEGIN TIM14_MspInit 1 */
  81:Src/tim.c     **** 
  82:Src/tim.c     ****   /* USER CODE END TIM14_MspInit 1 */
  83:Src/tim.c     ****   }
  84:Src/tim.c     **** }
 111              		.loc 1 84 0
 112 000c 03B0     		add	sp, sp, #12
 113              		@ sp needed
 114 000e 00BD     		pop	{pc}
 115              	.LVL4:
 116              	.L8:
 117              	.LBB5:
 118              	.LBB3:
 119              	.LBB4:
  75:Src/tim.c     **** 
 120              		.loc 1 75 0
 121 0010 0A4A     		ldr	r2, .L9+4
 122 0012 D169     		ldr	r1, [r2, #28]
 123 0014 8020     		movs	r0, #128
 124              	.LVL5:
 125 0016 4000     		lsls	r0, r0, #1
 126 0018 0143     		orrs	r1, r0
 127 001a D161     		str	r1, [r2, #28]
 128 001c D369     		ldr	r3, [r2, #28]
 129 001e 0340     		ands	r3, r0
 130 0020 0193     		str	r3, [sp, #4]
 131 0022 019B     		ldr	r3, [sp, #4]
 132              	.LBE4:
  78:Src/tim.c     ****     HAL_NVIC_EnableIRQ(TIM14_IRQn);
 133              		.loc 1 78 0
 134 0024 0022     		movs	r2, #0
 135 0026 0021     		movs	r1, #0
 136 0028 ED38     		subs	r0, r0, #237
 137 002a FFF7FEFF 		bl	HAL_NVIC_SetPriority
 138              	.LVL6:
  79:Src/tim.c     ****   /* USER CODE BEGIN TIM14_MspInit 1 */
 139              		.loc 1 79 0
 140 002e 1320     		movs	r0, #19
 141 0030 FFF7FEFF 		bl	HAL_NVIC_EnableIRQ
 142              	.LVL7:
 143              	.LBE3:
ARM GAS  C:\Users\HOGEHO~1\AppData\Local\Temp\ccx172WP.s 			page 5


 144              	.LBE5:
 145              		.loc 1 84 0
 146 0034 EAE7     		b	.L6
 147              	.L10:
 148 0036 C046     		.align	2
 149              	.L9:
 150 0038 00200040 		.word	1073750016
 151 003c 00100240 		.word	1073876992
 152              		.cfi_endproc
 153              	.LFE36:
 155              		.section	.text.HAL_TIM_Base_MspDeInit,"ax",%progbits
 156              		.align	1
 157              		.global	HAL_TIM_Base_MspDeInit
 158              		.syntax unified
 159              		.code	16
 160              		.thumb_func
 161              		.fpu softvfp
 163              	HAL_TIM_Base_MspDeInit:
 164              	.LFB37:
  85:Src/tim.c     **** 
  86:Src/tim.c     **** void HAL_TIM_Base_MspDeInit(TIM_HandleTypeDef* tim_baseHandle)
  87:Src/tim.c     **** {
 165              		.loc 1 87 0
 166              		.cfi_startproc
 167              		@ args = 0, pretend = 0, frame = 0
 168              		@ frame_needed = 0, uses_anonymous_args = 0
 169              	.LVL8:
 170 0000 10B5     		push	{r4, lr}
 171              	.LCFI3:
 172              		.cfi_def_cfa_offset 8
 173              		.cfi_offset 4, -8
 174              		.cfi_offset 14, -4
  88:Src/tim.c     **** 
  89:Src/tim.c     ****   if(tim_baseHandle->Instance==TIM14)
 175              		.loc 1 89 0
 176 0002 0268     		ldr	r2, [r0]
 177 0004 064B     		ldr	r3, .L14
 178 0006 9A42     		cmp	r2, r3
 179 0008 00D0     		beq	.L13
 180              	.LVL9:
 181              	.L11:
  90:Src/tim.c     ****   {
  91:Src/tim.c     ****   /* USER CODE BEGIN TIM14_MspDeInit 0 */
  92:Src/tim.c     **** 
  93:Src/tim.c     ****   /* USER CODE END TIM14_MspDeInit 0 */
  94:Src/tim.c     ****     /* Peripheral clock disable */
  95:Src/tim.c     ****     __HAL_RCC_TIM14_CLK_DISABLE();
  96:Src/tim.c     **** 
  97:Src/tim.c     ****     /* TIM14 interrupt Deinit */
  98:Src/tim.c     ****     HAL_NVIC_DisableIRQ(TIM14_IRQn);
  99:Src/tim.c     ****   /* USER CODE BEGIN TIM14_MspDeInit 1 */
 100:Src/tim.c     **** 
 101:Src/tim.c     ****   /* USER CODE END TIM14_MspDeInit 1 */
 102:Src/tim.c     ****   }
 103:Src/tim.c     **** } 
 182              		.loc 1 103 0
 183              		@ sp needed
ARM GAS  C:\Users\HOGEHO~1\AppData\Local\Temp\ccx172WP.s 			page 6


 184 000a 10BD     		pop	{r4, pc}
 185              	.LVL10:
 186              	.L13:
  95:Src/tim.c     **** 
 187              		.loc 1 95 0
 188 000c 054A     		ldr	r2, .L14+4
 189 000e D369     		ldr	r3, [r2, #28]
 190 0010 0549     		ldr	r1, .L14+8
 191 0012 0B40     		ands	r3, r1
 192 0014 D361     		str	r3, [r2, #28]
  98:Src/tim.c     ****   /* USER CODE BEGIN TIM14_MspDeInit 1 */
 193              		.loc 1 98 0
 194 0016 1320     		movs	r0, #19
 195              	.LVL11:
 196 0018 FFF7FEFF 		bl	HAL_NVIC_DisableIRQ
 197              	.LVL12:
 198              		.loc 1 103 0
 199 001c F5E7     		b	.L11
 200              	.L15:
 201 001e C046     		.align	2
 202              	.L14:
 203 0020 00200040 		.word	1073750016
 204 0024 00100240 		.word	1073876992
 205 0028 FFFEFFFF 		.word	-257
 206              		.cfi_endproc
 207              	.LFE37:
 209              		.global	htim14
 210              		.section	.bss.htim14,"aw",%nobits
 211              		.align	2
 212              		.set	.LANCHOR0,. + 0
 215              	htim14:
 216 0000 00000000 		.space	64
 216      00000000 
 216      00000000 
 216      00000000 
 216      00000000 
 217              		.section	.rodata.MX_TIM14_Init.str1.4,"aMS",%progbits,1
 218              		.align	2
 219              	.LC1:
 220 0000 5372632F 		.ascii	"Src/tim.c\000"
 220      74696D2E 
 220      6300
 221              		.text
 222              	.Letext0:
 223              		.file 2 "Drivers/CMSIS/Device/ST/STM32F0xx/Include/stm32f042x6.h"
 224              		.file 3 "c:\\program files (x86)\\gnu tools arm embedded\\7 2018-q2-update\\arm-none-eabi\\include
 225              		.file 4 "c:\\program files (x86)\\gnu tools arm embedded\\7 2018-q2-update\\arm-none-eabi\\include
 226              		.file 5 "Drivers/CMSIS/Device/ST/STM32F0xx/Include/system_stm32f0xx.h"
 227              		.file 6 "Drivers/CMSIS/Device/ST/STM32F0xx/Include/stm32f0xx.h"
 228              		.file 7 "c:\\program files (x86)\\gnu tools arm embedded\\7 2018-q2-update\\arm-none-eabi\\include
 229              		.file 8 "c:\\program files (x86)\\gnu tools arm embedded\\7 2018-q2-update\\arm-none-eabi\\include
 230              		.file 9 "c:\\program files (x86)\\gnu tools arm embedded\\7 2018-q2-update\\lib\\gcc\\arm-none-eab
 231              		.file 10 "c:\\program files (x86)\\gnu tools arm embedded\\7 2018-q2-update\\arm-none-eabi\\includ
 232              		.file 11 "Drivers/STM32F0xx_HAL_Driver/Inc/stm32f0xx_hal_def.h"
 233              		.file 12 "Drivers/STM32F0xx_HAL_Driver/Inc/stm32f0xx_hal_dma.h"
 234              		.file 13 "Drivers/STM32F0xx_HAL_Driver/Inc/stm32f0xx_hal_tim.h"
 235              		.file 14 "Inc/tim.h"
ARM GAS  C:\Users\HOGEHO~1\AppData\Local\Temp\ccx172WP.s 			page 7


 236              		.file 15 "Drivers/STM32F0xx_HAL_Driver/Inc/stm32f0xx_hal_cortex.h"
ARM GAS  C:\Users\HOGEHO~1\AppData\Local\Temp\ccx172WP.s 			page 8

